target datalayout = "e-m:e-p270:32:32-p271:32:32-p272:64:64-i64:64-i128:128-f80:128-n8:16:32:64-S128"
target triple = "x86_64-pc-linux-gnu"

; Function Attrs: alwaysinline nounwind willreturn memory(none) uwtable
define internal i32 @av_clip_c(i32 noundef %0, i32 noundef %1, i32 noundef %2) #4 {
  %4 = alloca i32, align 4
  %5 = alloca i32, align 4
  %6 = alloca i32, align 4
  %7 = alloca i32, align 4
  store i32 %0, ptr %5, align 4, !tbaa !39
  store i32 %1, ptr %6, align 4, !tbaa !39
  store i32 %2, ptr %7, align 4, !tbaa !39
  %8 = load i32, ptr %5, align 4, !tbaa !39
  %9 = load i32, ptr %6, align 4, !tbaa !39
  %10 = icmp slt i32 %8, %9
  br i1 %10, label %11, label %13

11:                                               ; preds = %3
  %12 = load i32, ptr %6, align 4, !tbaa !39
  store i32 %12, ptr %4, align 4
  br label %21

13:                                               ; preds = %3
  %14 = load i32, ptr %5, align 4, !tbaa !39
  %15 = load i32, ptr %7, align 4, !tbaa !39
  %16 = icmp sgt i32 %14, %15
  br i1 %16, label %17, label %19

17:                                               ; preds = %13
  %18 = load i32, ptr %7, align 4, !tbaa !39
  store i32 %18, ptr %4, align 4
  br label %21

19:                                               ; preds = %13
  %20 = load i32, ptr %5, align 4, !tbaa !39
  store i32 %20, ptr %4, align 4
  br label %21

21:                                               ; preds = %19, %17, %11
  %22 = load i32, ptr %4, align 4
  ret i32 %22
}

; Function Attrs: nounwind uwtable
define internal void @v210_planar_pack_10_c(ptr noundef %0, ptr noundef %1, ptr noundef %2, ptr noundef %3, i64 noundef %4) #1 {
  %6 = alloca ptr, align 8
  %7 = alloca ptr, align 8
  %8 = alloca ptr, align 8
  %9 = alloca ptr, align 8
  %10 = alloca i64, align 8
  %11 = alloca i32, align 4
  %12 = alloca i32, align 4
  store ptr %0, ptr %6, align 8, !tbaa !63
  store ptr %1, ptr %7, align 8, !tbaa !63
  store ptr %2, ptr %8, align 8, !tbaa !63
  store ptr %3, ptr %9, align 8, !tbaa !43
  store i64 %4, ptr %10, align 8, !tbaa !59
  call void @llvm.lifetime.start.p0(i64 4, ptr %11) #7
  call void @llvm.lifetime.start.p0(i64 4, ptr %12) #7
  store i32 0, ptr %12, align 4, !tbaa !39
  br label %13

13:                                               ; preds = %133, %5
  %14 = load i32, ptr %12, align 4, !tbaa !39
  %15 = sext i32 %14 to i64
  %16 = load i64, ptr %10, align 8, !tbaa !59
  %17 = sub nsw i64 %16, 5
  %18 = icmp slt i64 %15, %17
  br i1 %18, label %20, label %19

19:                                               ; preds = %13
  call void @llvm.lifetime.end.p0(i64 4, ptr %12) #7
  br label %136

20:                                               ; preds = %13
  br label %21

21:                                               ; preds = %20
  %22 = load ptr, ptr %7, align 8, !tbaa !63
  %23 = getelementptr inbounds nuw i16, ptr %22, i32 1
  store ptr %23, ptr %7, align 8, !tbaa !63
  %24 = load i16, ptr %22, align 2, !tbaa !64
  %25 = zext i16 %24 to i32
  %26 = call i32 @av_clip_c(i32 noundef %25, i32 noundef 4, i32 noundef 1019) #9
  %27 = shl i32 %26, 0
  store i32 %27, ptr %11, align 4, !tbaa !39
  %28 = load ptr, ptr %6, align 8, !tbaa !63
  %29 = getelementptr inbounds nuw i16, ptr %28, i32 1
  store ptr %29, ptr %6, align 8, !tbaa !63
  %30 = load i16, ptr %28, align 2, !tbaa !64
  %31 = zext i16 %30 to i32
  %32 = call i32 @av_clip_c(i32 noundef %31, i32 noundef 4, i32 noundef 1019) #9
  %33 = shl i32 %32, 10
  %34 = load ptr, ptr %8, align 8, !tbaa !63
  %35 = getelementptr inbounds nuw i16, ptr %34, i32 1
  store ptr %35, ptr %8, align 8, !tbaa !63
  %36 = load i16, ptr %34, align 2, !tbaa !64
  %37 = zext i16 %36 to i32
  %38 = call i32 @av_clip_c(i32 noundef %37, i32 noundef 4, i32 noundef 1019) #9
  %39 = shl i32 %38, 20
  %40 = or i32 %33, %39
  %41 = load i32, ptr %11, align 4, !tbaa !39
  %42 = or i32 %41, %40
  store i32 %42, ptr %11, align 4, !tbaa !39
  %43 = load i32, ptr %11, align 4, !tbaa !39
  %44 = load ptr, ptr %9, align 8, !tbaa !43
  store i32 %43, ptr %44, align 1, !tbaa !60
  %45 = load ptr, ptr %9, align 8, !tbaa !43
  %46 = getelementptr inbounds i8, ptr %45, i64 4
  store ptr %46, ptr %9, align 8, !tbaa !43
  br label %47

47:                                               ; preds = %21
  br label %48

48:                                               ; preds = %47
  br label %49

49:                                               ; preds = %48
  %50 = load ptr, ptr %6, align 8, !tbaa !63
  %51 = getelementptr inbounds nuw i16, ptr %50, i32 1
  store ptr %51, ptr %6, align 8, !tbaa !63
  %52 = load i16, ptr %50, align 2, !tbaa !64
  %53 = zext i16 %52 to i32
  %54 = call i32 @av_clip_c(i32 noundef %53, i32 noundef 4, i32 noundef 1019) #9
  %55 = shl i32 %54, 0
  store i32 %55, ptr %11, align 4, !tbaa !39
  %56 = load ptr, ptr %7, align 8, !tbaa !63
  %57 = getelementptr inbounds nuw i16, ptr %56, i32 1
  store ptr %57, ptr %7, align 8, !tbaa !63
  %58 = load i16, ptr %56, align 2, !tbaa !64
  %59 = zext i16 %58 to i32
  %60 = call i32 @av_clip_c(i32 noundef %59, i32 noundef 4, i32 noundef 1019) #9
  %61 = shl i32 %60, 10
  %62 = load ptr, ptr %6, align 8, !tbaa !63
  %63 = getelementptr inbounds nuw i16, ptr %62, i32 1
  store ptr %63, ptr %6, align 8, !tbaa !63
  %64 = load i16, ptr %62, align 2, !tbaa !64
  %65 = zext i16 %64 to i32
  %66 = call i32 @av_clip_c(i32 noundef %65, i32 noundef 4, i32 noundef 1019) #9
  %67 = shl i32 %66, 20
  %68 = or i32 %61, %67
  %69 = load i32, ptr %11, align 4, !tbaa !39
  %70 = or i32 %69, %68
  store i32 %70, ptr %11, align 4, !tbaa !39
  %71 = load i32, ptr %11, align 4, !tbaa !39
  %72 = load ptr, ptr %9, align 8, !tbaa !43
  store i32 %71, ptr %72, align 1, !tbaa !60
  %73 = load ptr, ptr %9, align 8, !tbaa !43
  %74 = getelementptr inbounds i8, ptr %73, i64 4
  store ptr %74, ptr %9, align 8, !tbaa !43
  br label %75

75:                                               ; preds = %49
  br label %76

76:                                               ; preds = %75
  br label %77

77:                                               ; preds = %76
  %78 = load ptr, ptr %8, align 8, !tbaa !63
  %79 = getelementptr inbounds nuw i16, ptr %78, i32 1
  store ptr %79, ptr %8, align 8, !tbaa !63
  %80 = load i16, ptr %78, align 2, !tbaa !64
  %81 = zext i16 %80 to i32
  %82 = call i32 @av_clip_c(i32 noundef %81, i32 noundef 4, i32 noundef 1019) #9
  %83 = shl i32 %82, 0
  store i32 %83, ptr %11, align 4, !tbaa !39
  %84 = load ptr, ptr %6, align 8, !tbaa !63
  %85 = getelementptr inbounds nuw i16, ptr %84, i32 1
  store ptr %85, ptr %6, align 8, !tbaa !63
  %86 = load i16, ptr %84, align 2, !tbaa !64
  %87 = zext i16 %86 to i32
  %88 = call i32 @av_clip_c(i32 noundef %87, i32 noundef 4, i32 noundef 1019) #9
  %89 = shl i32 %88, 10
  %90 = load ptr, ptr %7, align 8, !tbaa !63
  %91 = getelementptr inbounds nuw i16, ptr %90, i32 1
  store ptr %91, ptr %7, align 8, !tbaa !63
  %92 = load i16, ptr %90, align 2, !tbaa !64
  %93 = zext i16 %92 to i32
  %94 = call i32 @av_clip_c(i32 noundef %93, i32 noundef 4, i32 noundef 1019) #9
  %95 = shl i32 %94, 20
  %96 = or i32 %89, %95
  %97 = load i32, ptr %11, align 4, !tbaa !39
  %98 = or i32 %97, %96
  store i32 %98, ptr %11, align 4, !tbaa !39
  %99 = load i32, ptr %11, align 4, !tbaa !39
  %100 = load ptr, ptr %9, align 8, !tbaa !43
  store i32 %99, ptr %100, align 1, !tbaa !60
  %101 = load ptr, ptr %9, align 8, !tbaa !43
  %102 = getelementptr inbounds i8, ptr %101, i64 4
  store ptr %102, ptr %9, align 8, !tbaa !43
  br label %103

103:                                              ; preds = %77
  br label %104

104:                                              ; preds = %103
  br label %105

105:                                              ; preds = %104
  %106 = load ptr, ptr %6, align 8, !tbaa !63
  %107 = getelementptr inbounds nuw i16, ptr %106, i32 1
  store ptr %107, ptr %6, align 8, !tbaa !63
  %108 = load i16, ptr %106, align 2, !tbaa !64
  %109 = zext i16 %108 to i32
  %110 = call i32 @av_clip_c(i32 noundef %109, i32 noundef 4, i32 noundef 1019) #9
  %111 = shl i32 %110, 0
  store i32 %111, ptr %11, align 4, !tbaa !39
  %112 = load ptr, ptr %8, align 8, !tbaa !63
  %113 = getelementptr inbounds nuw i16, ptr %112, i32 1
  store ptr %113, ptr %8, align 8, !tbaa !63
  %114 = load i16, ptr %112, align 2, !tbaa !64
  %115 = zext i16 %114 to i32
  %116 = call i32 @av_clip_c(i32 noundef %115, i32 noundef 4, i32 noundef 1019) #9
  %117 = shl i32 %116, 10
  %118 = load ptr, ptr %6, align 8, !tbaa !63
  %119 = getelementptr inbounds nuw i16, ptr %118, i32 1
  store ptr %119, ptr %6, align 8, !tbaa !63
  %120 = load i16, ptr %118, align 2, !tbaa !64
  %121 = zext i16 %120 to i32
  %122 = call i32 @av_clip_c(i32 noundef %121, i32 noundef 4, i32 noundef 1019) #9
  %123 = shl i32 %122, 20
  %124 = or i32 %117, %123
  %125 = load i32, ptr %11, align 4, !tbaa !39
  %126 = or i32 %125, %124
  store i32 %126, ptr %11, align 4, !tbaa !39
  %127 = load i32, ptr %11, align 4, !tbaa !39
  %128 = load ptr, ptr %9, align 8, !tbaa !43
  store i32 %127, ptr %128, align 1, !tbaa !60
  %129 = load ptr, ptr %9, align 8, !tbaa !43
  %130 = getelementptr inbounds i8, ptr %129, i64 4
  store ptr %130, ptr %9, align 8, !tbaa !43
  br label %131

131:                                              ; preds = %105
  br label %132

132:                                              ; preds = %131
  br label %133

133:                                              ; preds = %132
  %134 = load i32, ptr %12, align 4, !tbaa !39
  %135 = add nsw i32 %134, 6
  store i32 %135, ptr %12, align 4, !tbaa !39
  br label %13, !llvm.loop !66

136:                                              ; preds = %19
  call void @llvm.lifetime.end.p0(i64 4, ptr %11) #7
  ret void
}