; Function Attrs: nofree norecurse nosync nounwind memory(argmem: readwrite) uwtable
define internal void @v210_planar_pack_10_c(ptr noundef readonly captures(none) %0, ptr noundef readonly captures(none) %1, ptr noundef readonly captures(none) %2, ptr noundef writeonly captures(none) %3, i64 noundef %4) #3 {
  %6 = add nsw i64 %4, -5
  %7 = icmp sgt i64 %4, 5
  br i1 %7, label %.lr.ph, label %._crit_edge

._crit_edge:                                      ; preds = %.lr.ph, %5
  ret void

.lr.ph:                                           ; preds = %5, %.lr.ph
  %indvars.iv = phi i64 [ %indvars.iv.next, %.lr.ph ], [ 0, %5 ]
  %.03059 = phi ptr [ %68, %.lr.ph ], [ %0, %5 ]
  %.03158 = phi ptr [ %51, %.lr.ph ], [ %1, %5 ]
  %.03257 = phi ptr [ %75, %.lr.ph ], [ %3, %5 ]
  %.03356 = phi ptr [ %63, %.lr.ph ], [ %2, %5 ]
  %8 = getelementptr inbounds nuw i8, ptr %.03158, i64 2
  %9 = load i16, ptr %.03158, align 2, !tbaa !44
  %10 = tail call i16 @llvm.umax.i16(i16 %9, i16 4)
  %11 = tail call i16 @llvm.umin.i16(i16 %10, i16 1019)
  %.0.i = zext nneg i16 %11 to i32
  %12 = getelementptr inbounds nuw i8, ptr %.03059, i64 2
  %13 = load i16, ptr %.03059, align 2, !tbaa !44
  %14 = tail call i16 @llvm.umax.i16(i16 %13, i16 4)
  %15 = tail call i16 @llvm.umin.i16(i16 %14, i16 1019)
  %.0.i35 = zext nneg i16 %15 to i32
  %16 = shl nuw nsw i32 %.0.i35, 10
  %17 = getelementptr inbounds nuw i8, ptr %.03356, i64 2
  %18 = load i16, ptr %.03356, align 2, !tbaa !44
  %19 = tail call i16 @llvm.umax.i16(i16 %18, i16 4)
  %20 = tail call i16 @llvm.umin.i16(i16 %19, i16 1019)
  %.0.i37 = zext nneg i16 %20 to i32
  %21 = shl nuw nsw i32 %.0.i37, 20
  %22 = or disjoint i32 %21, %16
  %23 = or disjoint i32 %22, %.0.i
  store i32 %23, ptr %.03257, align 1, !tbaa !46
  %24 = getelementptr inbounds nuw i8, ptr %.03257, i64 4
  %25 = getelementptr inbounds nuw i8, ptr %.03059, i64 4
  %26 = load i16, ptr %12, align 2, !tbaa !44
  %27 = tail call i16 @llvm.umax.i16(i16 %26, i16 4)
  %28 = tail call i16 @llvm.umin.i16(i16 %27, i16 1019)
  %.0.i39 = zext nneg i16 %28 to i32
  %29 = getelementptr inbounds nuw i8, ptr %.03158, i64 4
  %30 = load i16, ptr %8, align 2, !tbaa !44
  %31 = tail call i16 @llvm.umax.i16(i16 %30, i16 4)
  %32 = tail call i16 @llvm.umin.i16(i16 %31, i16 1019)
  %.0.i41 = zext nneg i16 %32 to i32
  %33 = shl nuw nsw i32 %.0.i41, 10
  %34 = getelementptr inbounds nuw i8, ptr %.03059, i64 6
  %35 = load i16, ptr %25, align 2, !tbaa !44
  %36 = tail call i16 @llvm.umax.i16(i16 %35, i16 4)
  %37 = tail call i16 @llvm.umin.i16(i16 %36, i16 1019)
  %.0.i43 = zext nneg i16 %37 to i32
  %38 = shl nuw nsw i32 %.0.i43, 20
  %39 = or disjoint i32 %38, %33
  %40 = or disjoint i32 %39, %.0.i39
  store i32 %40, ptr %24, align 1, !tbaa !46
  %41 = getelementptr inbounds nuw i8, ptr %.03257, i64 8
  %42 = getelementptr inbounds nuw i8, ptr %.03356, i64 4
  %43 = load i16, ptr %17, align 2, !tbaa !44
  %44 = tail call i16 @llvm.umax.i16(i16 %43, i16 4)
  %45 = tail call i16 @llvm.umin.i16(i16 %44, i16 1019)
  %.0.i45 = zext nneg i16 %45 to i32
  %46 = getelementptr inbounds nuw i8, ptr %.03059, i64 8
  %47 = load i16, ptr %34, align 2, !tbaa !44
  %48 = tail call i16 @llvm.umax.i16(i16 %47, i16 4)
  %49 = tail call i16 @llvm.umin.i16(i16 %48, i16 1019)
  %.0.i47 = zext nneg i16 %49 to i32
  %50 = shl nuw nsw i32 %.0.i47, 10
  %51 = getelementptr inbounds nuw i8, ptr %.03158, i64 6
  %52 = load i16, ptr %29, align 2, !tbaa !44
  %53 = tail call i16 @llvm.umax.i16(i16 %52, i16 4)
  %54 = tail call i16 @llvm.umin.i16(i16 %53, i16 1019)
  %.0.i49 = zext nneg i16 %54 to i32
  %55 = shl nuw nsw i32 %.0.i49, 20
  %56 = or disjoint i32 %55, %50
  %57 = or disjoint i32 %56, %.0.i45
  store i32 %57, ptr %41, align 1, !tbaa !46
  %58 = getelementptr inbounds nuw i8, ptr %.03257, i64 12
  %59 = getelementptr inbounds nuw i8, ptr %.03059, i64 10
  %60 = load i16, ptr %46, align 2, !tbaa !44
  %61 = tail call i16 @llvm.umax.i16(i16 %60, i16 4)
  %62 = tail call i16 @llvm.umin.i16(i16 %61, i16 1019)
  %.0.i51 = zext nneg i16 %62 to i32
  %63 = getelementptr inbounds nuw i8, ptr %.03356, i64 6
  %64 = load i16, ptr %42, align 2, !tbaa !44
  %65 = tail call i16 @llvm.umax.i16(i16 %64, i16 4)
  %66 = tail call i16 @llvm.umin.i16(i16 %65, i16 1019)
  %.0.i53 = zext nneg i16 %66 to i32
  %67 = shl nuw nsw i32 %.0.i53, 10
  %68 = getelementptr inbounds nuw i8, ptr %.03059, i64 12
  %69 = load i16, ptr %59, align 2, !tbaa !44
  %70 = tail call i16 @llvm.umax.i16(i16 %69, i16 4)
  %71 = tail call i16 @llvm.umin.i16(i16 %70, i16 1019)
  %.0.i55 = zext nneg i16 %71 to i32
  %72 = shl nuw nsw i32 %.0.i55, 20
  %73 = or disjoint i32 %72, %67
  %74 = or disjoint i32 %73, %.0.i51
  store i32 %74, ptr %58, align 1, !tbaa !46
  %75 = getelementptr inbounds nuw i8, ptr %.03257, i64 16
  %indvars.iv.next = add nuw nsw i64 %indvars.iv, 6
  %76 = icmp sgt i64 %6, %indvars.iv.next
  br i1 %76, label %.lr.ph, label %._crit_edge, !llvm.loop !57
}